target datalayout = "e-m:e-p270:32:32-p271:32:32-p272:64:64-i64:64-i128:128-f80:128-n8:16:32:64-S128"
target triple = "x86_64-pc-linux-gnu"

%class.mpfx_manager = type <{ i32, i32, i32, [4 x i8], %class.svector, i32, i8, [3 x i8], %class.id_gen, %class.svector, %class.svector, %class.svector, %class.svector, %class.mpfx, [4 x i8] }>
%class.id_gen = type { i32, %class.svector }
%class.svector = type { %class.vector }
%class.vector = type { ptr }
%class.mpfx = type { i32 }

; Function Attrs: mustprogress nounwind uwtable
define linkonce_odr hidden noundef ptr @_ZNK6vectorIjLb0EjE4dataEv(ptr noundef nonnull align 8 dereferenceable(8) %0) #5 comdat align 2 {
  %2 = alloca ptr, align 8
  store ptr %0, ptr %2, align 8, !tbaa !30
  %3 = load ptr, ptr %2, align 8
  %4 = getelementptr inbounds nuw %class.vector, ptr %3, i32 0, i32 0
  %5 = load ptr, ptr %4, align 8, !tbaa !34
  ret ptr %5
}

; Function Attrs: mustprogress uwtable
define linkonce_odr hidden noundef ptr @_ZNK12mpfx_manager5wordsERK4mpfx(ptr noundef nonnull align 8 dereferenceable(85) %0, ptr noundef nonnull align 4 dereferenceable(4) %1) #4 comdat align 2 {
  %3 = alloca ptr, align 8
  %4 = alloca ptr, align 8
  store ptr %0, ptr %3, align 8, !tbaa !3
  store ptr %1, ptr %4, align 8, !tbaa !28
  %5 = load ptr, ptr %3, align 8
  %6 = getelementptr inbounds nuw %class.mpfx_manager, ptr %5, i32 0, i32 4
  %7 = call noundef ptr @_ZNK6vectorIjLb0EjE4dataEv(ptr noundef nonnull align 8 dereferenceable(8) %6)
  %8 = load ptr, ptr %4, align 8, !tbaa !28
  %9 = load i32, ptr %8, align 4
  %10 = lshr i32 %9, 1
  %11 = getelementptr inbounds nuw %class.mpfx_manager, ptr %5, i32 0, i32 2
  %12 = load i32, ptr %11, align 8, !tbaa !20
  %13 = mul i32 %10, %12
  %14 = zext i32 %13 to i64
  %15 = getelementptr inbounds nuw i32, ptr %7, i64 %14
  ret ptr %15
}

; Function Attrs: mustprogress nounwind uwtable
define linkonce_odr hidden noundef zeroext i1 @_ZN12mpfx_manager6is_posERK4mpfx(ptr noundef nonnull align 4 dereferenceable(4) %0) #5 comdat align 2 {
  %2 = alloca ptr, align 8
  store ptr %0, ptr %2, align 8, !tbaa !28
  %3 = load ptr, ptr %2, align 8, !tbaa !28
  %4 = load i32, ptr %3, align 4
  %5 = and i32 %4, 1
  %6 = icmp eq i32 %5, 0
  br i1 %6, label %7, label %11

7:                                                ; preds = %1
  %8 = load ptr, ptr %2, align 8, !tbaa !28
  %9 = call noundef zeroext i1 @_ZN12mpfx_manager7is_zeroERK4mpfx(ptr noundef nonnull align 4 dereferenceable(4) %8)
  %10 = xor i1 %9, true
  br label %11

11:                                               ; preds = %7, %1
  %12 = phi i1 [ false, %1 ], [ %10, %7 ]
  ret i1 %12
}

; Function Attrs: mustprogress nounwind uwtable
define linkonce_odr hidden noundef zeroext i1 @_ZN12mpfx_manager6is_negERK4mpfx(ptr noundef nonnull align 4 dereferenceable(4) %0) #5 comdat align 2 {
  %2 = alloca ptr, align 8
  store ptr %0, ptr %2, align 8, !tbaa !28
  %3 = load ptr, ptr %2, align 8, !tbaa !28
  %4 = load i32, ptr %3, align 4
  %5 = and i32 %4, 1
  %6 = icmp ne i32 %5, 0
  ret i1 %6
}

; Function Attrs: mustprogress nounwind uwtable
define linkonce_odr hidden noundef zeroext i1 @_ZN12mpfx_manager7is_zeroERK4mpfx(ptr noundef nonnull align 4 dereferenceable(4) %0) #5 comdat align 2 {
  %2 = alloca ptr, align 8
  store ptr %0, ptr %2, align 8, !tbaa !28
  %3 = load ptr, ptr %2, align 8, !tbaa !28
  %4 = load i32, ptr %3, align 4
  %5 = lshr i32 %4, 1
  %6 = icmp eq i32 %5, 0
  ret i1 %6
}

; Function Attrs: mustprogress uwtable
define hidden noundef zeroext i1 @_ZNK12mpfx_manager2ltERK4mpfxS2_(ptr noundef nonnull align 8 dereferenceable(85) %0, ptr noundef nonnull align 4 dereferenceable(4) %1, ptr noundef nonnull align 4 dereferenceable(4) %2) #4 align 2 {
  %4 = alloca ptr, align 8
  %5 = alloca ptr, align 8
  %6 = alloca ptr, align 8
  %7 = alloca i8, align 1
  store ptr %0, ptr %4, align 8, !tbaa !3
  store ptr %1, ptr %5, align 8, !tbaa !28
  store ptr %2, ptr %6, align 8, !tbaa !28
  %8 = load ptr, ptr %4, align 8
  call void @llvm.lifetime.start.p0(i64 1, ptr %7) #3
  %9 = load ptr, ptr %5, align 8, !tbaa !28
  %10 = call noundef zeroext i1 @_ZN12mpfx_manager7is_zeroERK4mpfx(ptr noundef nonnull align 4 dereferenceable(4) %9)
  br i1 %10, label %11, label %21

11:                                               ; preds = %3
  %12 = load ptr, ptr %6, align 8, !tbaa !28
  %13 = call noundef zeroext i1 @_ZN12mpfx_manager7is_zeroERK4mpfx(ptr noundef nonnull align 4 dereferenceable(4) %12)
  br i1 %13, label %18, label %14

14:                                               ; preds = %11
  %15 = load ptr, ptr %6, align 8, !tbaa !28
  %16 = call noundef zeroext i1 @_ZN12mpfx_manager6is_negERK4mpfx(ptr noundef nonnull align 4 dereferenceable(4) %15)
  %17 = xor i1 %16, true
  br label %18

18:                                               ; preds = %14, %11
  %19 = phi i1 [ false, %11 ], [ %17, %14 ]
  %20 = zext i1 %19 to i8
  store i8 %20, ptr %7, align 1, !tbaa !60
  br label %61

21:                                               ; preds = %3
  %22 = load ptr, ptr %6, align 8, !tbaa !28
  %23 = call noundef zeroext i1 @_ZN12mpfx_manager7is_zeroERK4mpfx(ptr noundef nonnull align 4 dereferenceable(4) %22)
  br i1 %23, label %24, label %28

24:                                               ; preds = %21
  %25 = load ptr, ptr %5, align 8, !tbaa !28
  %26 = call noundef zeroext i1 @_ZN12mpfx_manager6is_negERK4mpfx(ptr noundef nonnull align 4 dereferenceable(4) %25)
  %27 = zext i1 %26 to i8
  store i8 %27, ptr %7, align 1, !tbaa !60
  br label %60

28:                                               ; preds = %21
  %29 = load ptr, ptr %5, align 8, !tbaa !28
  %30 = call noundef zeroext i1 @_ZN12mpfx_manager6is_negERK4mpfx(ptr noundef nonnull align 4 dereferenceable(4) %29)
  br i1 %30, label %31, label %45

31:                                               ; preds = %28
  %32 = load ptr, ptr %6, align 8, !tbaa !28
  %33 = call noundef zeroext i1 @_ZN12mpfx_manager6is_posERK4mpfx(ptr noundef nonnull align 4 dereferenceable(4) %32)
  br i1 %33, label %42, label %34

34:                                               ; preds = %31
  %35 = getelementptr inbounds nuw %class.mpfx_manager, ptr %8, i32 0, i32 2
  %36 = load i32, ptr %35, align 8, !tbaa !20
  %37 = load ptr, ptr %6, align 8, !tbaa !28
  %38 = call noundef ptr @_ZNK12mpfx_manager5wordsERK4mpfx(ptr noundef nonnull align 8 dereferenceable(85) %8, ptr noundef nonnull align 4 dereferenceable(4) %37)
  %39 = load ptr, ptr %5, align 8, !tbaa !28
  %40 = call noundef ptr @_ZNK12mpfx_manager5wordsERK4mpfx(ptr noundef nonnull align 8 dereferenceable(85) %8, ptr noundef nonnull align 4 dereferenceable(4) %39)
  %41 = call noundef zeroext i1 @_Z2ltjPjS_(i32 noundef %36, ptr noundef %38, ptr noundef %40)
  br label %42

42:                                               ; preds = %34, %31
  %43 = phi i1 [ true, %31 ], [ %41, %34 ]
  %44 = zext i1 %43 to i8
  store i8 %44, ptr %7, align 1, !tbaa !60
  br label %59

45:                                               ; preds = %28
  %46 = load ptr, ptr %6, align 8, !tbaa !28
  %47 = call noundef zeroext i1 @_ZN12mpfx_manager6is_posERK4mpfx(ptr noundef nonnull align 4 dereferenceable(4) %46)
  br i1 %47, label %48, label %56

48:                                               ; preds = %45
  %49 = getelementptr inbounds nuw %class.mpfx_manager, ptr %8, i32 0, i32 2
  %50 = load i32, ptr %49, align 8, !tbaa !20
  %51 = load ptr, ptr %5, align 8, !tbaa !28
  %52 = call noundef ptr @_ZNK12mpfx_manager5wordsERK4mpfx(ptr noundef nonnull align 8 dereferenceable(85) %8, ptr noundef nonnull align 4 dereferenceable(4) %51)
  %53 = load ptr, ptr %6, align 8, !tbaa !28
  %54 = call noundef ptr @_ZNK12mpfx_manager5wordsERK4mpfx(ptr noundef nonnull align 8 dereferenceable(85) %8, ptr noundef nonnull align 4 dereferenceable(4) %53)
  %55 = call noundef zeroext i1 @_Z2ltjPjS_(i32 noundef %50, ptr noundef %52, ptr noundef %54)
  br label %56

56:                                               ; preds = %48, %45
  %57 = phi i1 [ false, %45 ], [ %55, %48 ]
  %58 = zext i1 %57 to i8
  store i8 %58, ptr %7, align 1, !tbaa !60
  br label %59

59:                                               ; preds = %56, %42
  br label %60

60:                                               ; preds = %59, %24
  br label %61

61:                                               ; preds = %60, %18
  %62 = load i8, ptr %7, align 1, !tbaa !60, !range !57, !noundef !58
  %63 = trunc i8 %62 to i1
  call void @llvm.lifetime.end.p0(i64 1, ptr %7) #3
  ret i1 %63
}