; Function Attrs: mustprogress uwtable
define hidden noundef zeroext i1 @_ZNK12mpfx_manager2ltERK4mpfxS2_(ptr noundef nonnull readonly align 8 captures(none) dereferenceable(85) %0, ptr noundef nonnull readonly align 4 captures(none) dereferenceable(4) %1, ptr noundef nonnull readonly align 4 captures(none) dereferenceable(4) %2) local_unnamed_addr #3 align 2 {
  %4 = load i32, ptr %1, align 4
  %5 = icmp ult i32 %4, 2
  %6 = load i32, ptr %2, align 4
  %7 = icmp ult i32 %6, 2
  br i1 %5, label %8, label %11

8:                                                ; preds = %3
  br i1 %7, label %48, label %9

9:                                                ; preds = %8
  %10 = and i32 %6, 1
  %.not13 = icmp eq i32 %10, 0
  br label %48

11:                                               ; preds = %3
  %12 = and i32 %4, 1
  br i1 %7, label %13, label %15

13:                                               ; preds = %11
  %14 = icmp ne i32 %12, 0
  br label %48

15:                                               ; preds = %11
  %.not = icmp eq i32 %12, 0
  %16 = and i32 %6, 1
  %17 = icmp eq i32 %16, 0
  br i1 %.not, label %33, label %18

18:                                               ; preds = %15
  br i1 %17, label %48, label %19

19:                                               ; preds = %18
  %20 = getelementptr inbounds nuw i8, ptr %0, i64 8
  %21 = load i32, ptr %20, align 8, !tbaa !19
  %22 = getelementptr inbounds nuw i8, ptr %0, i64 16
  %23 = load ptr, ptr %22, align 8, !tbaa !3
  %24 = lshr i32 %6, 1
  %25 = mul i32 %21, %24
  %26 = zext i32 %25 to i64
  %27 = getelementptr inbounds nuw i32, ptr %23, i64 %26
  %28 = lshr i32 %4, 1
  %29 = mul i32 %21, %28
  %30 = zext i32 %29 to i64
  %31 = getelementptr inbounds nuw i32, ptr %23, i64 %30
  %32 = tail call noundef zeroext i1 @_Z2ltjPjS_(i32 noundef %21, ptr noundef %27, ptr noundef %31)
  br label %48

33:                                               ; preds = %15
  br i1 %17, label %34, label %48

34:                                               ; preds = %33
  %35 = getelementptr inbounds nuw i8, ptr %0, i64 8
  %36 = load i32, ptr %35, align 8, !tbaa !19
  %37 = getelementptr inbounds nuw i8, ptr %0, i64 16
  %38 = load ptr, ptr %37, align 8, !tbaa !3
  %39 = lshr exact i32 %4, 1
  %40 = mul i32 %36, %39
  %41 = zext i32 %40 to i64
  %42 = getelementptr inbounds nuw i32, ptr %38, i64 %41
  %43 = lshr exact i32 %6, 1
  %44 = mul i32 %36, %43
  %45 = zext i32 %44 to i64
  %46 = getelementptr inbounds nuw i32, ptr %38, i64 %45
  %47 = tail call noundef zeroext i1 @_Z2ltjPjS_(i32 noundef %36, ptr noundef %42, ptr noundef %46)
  br label %48

48:                                               ; preds = %33, %34, %18, %19, %8, %9, %13
  %.0 = phi i1 [ %14, %13 ], [ false, %8 ], [ %.not13, %9 ], [ true, %18 ], [ %32, %19 ], [ false, %33 ], [ %47, %34 ]
  ret i1 %.0
}